; Function Attrs: mustprogress nofree norecurse nosync nounwind willreturn memory(read, inaccessiblemem: none) uwtable
define internal noundef i32 @_ZN10open_spiel10algorithms12_GLOBAL__N_120FirstPlayerAdvantageERKNS_5StateE(ptr nocapture noundef nonnull readonly align 8 dereferenceable(60) %0) #11 {
  %2 = getelementptr inbounds nuw i8, ptr %0, i64 96
  %3 = load ptr, ptr %2, align 8
  %4 = load i32, ptr %3, align 4
  %5 = getelementptr inbounds i8, ptr %3, i64 4
  %6 = load i32, ptr %5, align 4
  %7 = sub nsw i32 %4, %6
  ret i32 %7
}